; Function Attrs: mustprogress uwtable
define internal noundef float @_ZN5faiss12_GLOBAL__N_128AQDistanceComputerDecompressINS_14VectorDistanceILNS_10MetricTypeE1EEEE16distance_to_codeEPKh(ptr nocapture noundef nonnull readonly align 8 dereferenceable(88) %0, ptr noundef %1) unnamed_addr #2 align 2 {
  %3 = getelementptr inbounds i8, ptr %0, i64 48
  %4 = load ptr, ptr %3, align 8
  %5 = getelementptr inbounds i8, ptr %0, i64 24
  %6 = load ptr, ptr %5, align 8
  %7 = load ptr, ptr %4, align 8
  %8 = getelementptr inbounds i8, ptr %7, i64 16
  %9 = load ptr, ptr %8, align 8
  tail call void %9(ptr noundef nonnull align 8 dereferenceable(308) %4, ptr noundef %1, ptr noundef %6, i64 noundef 1)
  %10 = getelementptr inbounds i8, ptr %0, i64 56
  %11 = getelementptr inbounds i8, ptr %0, i64 80
  %12 = load ptr, ptr %11, align 8
  %13 = load ptr, ptr %5, align 8
  %14 = load i64, ptr %10, align 8
  %15 = tail call noundef float @_ZN5faiss10fvec_L2sqrEPKfS1_m(ptr noundef %12, ptr noundef %13, i64 noundef %14)
  ret float %15
}